target datalayout = "e-m:e-p270:32:32-p271:32:32-p272:64:64-i64:64-i128:128-f80:128-n8:16:32:64-S128"
target triple = "x86_64-pc-linux-gnu"

@quote = internal global ptr @.str.97, align 8
@apos = internal global ptr @.str.98, align 8
@lt = internal global ptr @.str.99, align 8
@gt = internal global ptr @.str.100, align 8
@amp = internal global ptr @.str.101, align 8

; Function Attrs: nounwind uwtable
define internal ptr @xml_escape_the_name(ptr noundef %0) #0 {
  %2 = alloca ptr, align 8
  %3 = alloca ptr, align 8
  %4 = alloca i64, align 8
  %5 = alloca i64, align 8
  %6 = alloca i64, align 8
  %7 = alloca ptr, align 8
  %8 = alloca ptr, align 8
  %9 = alloca ptr, align 8
  %10 = alloca i64, align 8
  %11 = alloca i32, align 4
  %12 = alloca i64, align 8
  store ptr %0, ptr %3, align 8, !tbaa !21
  call void @llvm.lifetime.start.p0(i64 8, ptr %4) #9
  call void @llvm.lifetime.start.p0(i64 8, ptr %5) #9
  call void @llvm.lifetime.start.p0(i64 8, ptr %6) #9
  call void @llvm.lifetime.start.p0(i64 8, ptr %7) #9
  call void @llvm.lifetime.start.p0(i64 8, ptr %8) #9
  call void @llvm.lifetime.start.p0(i64 8, ptr %9) #9
  call void @llvm.lifetime.start.p0(i64 8, ptr %10) #9
  %13 = load ptr, ptr %3, align 8, !tbaa !21
  %14 = icmp ne ptr %13, null
  br i1 %14, label %16, label %15

15:                                               ; preds = %1
  store ptr null, ptr %2, align 8
  store i32 1, ptr %11, align 4
  br label %194

16:                                               ; preds = %1
  %17 = load ptr, ptr %3, align 8, !tbaa !21
  store ptr %17, ptr %7, align 8, !tbaa !21
  %18 = load ptr, ptr %3, align 8, !tbaa !21
  %19 = call i64 @strlen(ptr noundef %18) #11
  store i64 %19, ptr %5, align 8, !tbaa !4
  store i64 0, ptr %4, align 8, !tbaa !4
  store i64 0, ptr %6, align 8, !tbaa !4
  br label %20

20:                                               ; preds = %86, %16
  %21 = load i64, ptr %6, align 8, !tbaa !4
  %22 = load i64, ptr %5, align 8, !tbaa !4
  %23 = icmp ult i64 %21, %22
  br i1 %23, label %24, label %89

24:                                               ; preds = %20
  %25 = load ptr, ptr %7, align 8, !tbaa !21
  %26 = load i8, ptr %25, align 1, !tbaa !48
  %27 = sext i8 %26 to i32
  %28 = icmp eq i32 %27, 34
  br i1 %28, label %29, label %35

29:                                               ; preds = %24
  %30 = load ptr, ptr @quote, align 8, !tbaa !21
  %31 = call i64 @strlen(ptr noundef %30) #11
  %32 = sub i64 %31, 1
  %33 = load i64, ptr %4, align 8, !tbaa !4
  %34 = add i64 %33, %32
  store i64 %34, ptr %4, align 8, !tbaa !4
  br label %83

35:                                               ; preds = %24
  %36 = load ptr, ptr %7, align 8, !tbaa !21
  %37 = load i8, ptr %36, align 1, !tbaa !48
  %38 = sext i8 %37 to i32
  %39 = icmp eq i32 %38, 39
  br i1 %39, label %40, label %46

40:                                               ; preds = %35
  %41 = load ptr, ptr @apos, align 8, !tbaa !21
  %42 = call i64 @strlen(ptr noundef %41) #11
  %43 = sub i64 %42, 1
  %44 = load i64, ptr %4, align 8, !tbaa !4
  %45 = add i64 %44, %43
  store i64 %45, ptr %4, align 8, !tbaa !4
  br label %82

46:                                               ; preds = %35
  %47 = load ptr, ptr %7, align 8, !tbaa !21
  %48 = load i8, ptr %47, align 1, !tbaa !48
  %49 = sext i8 %48 to i32
  %50 = icmp eq i32 %49, 60
  br i1 %50, label %51, label %57

51:                                               ; preds = %46
  %52 = load ptr, ptr @lt, align 8, !tbaa !21
  %53 = call i64 @strlen(ptr noundef %52) #11
  %54 = sub i64 %53, 1
  %55 = load i64, ptr %4, align 8, !tbaa !4
  %56 = add i64 %55, %54
  store i64 %56, ptr %4, align 8, !tbaa !4
  br label %81

57:                                               ; preds = %46
  %58 = load ptr, ptr %7, align 8, !tbaa !21
  %59 = load i8, ptr %58, align 1, !tbaa !48
  %60 = sext i8 %59 to i32
  %61 = icmp eq i32 %60, 62
  br i1 %61, label %62, label %68

62:                                               ; preds = %57
  %63 = load ptr, ptr @gt, align 8, !tbaa !21
  %64 = call i64 @strlen(ptr noundef %63) #11
  %65 = sub i64 %64, 1
  %66 = load i64, ptr %4, align 8, !tbaa !4
  %67 = add i64 %66, %65
  store i64 %67, ptr %4, align 8, !tbaa !4
  br label %80

68:                                               ; preds = %57
  %69 = load ptr, ptr %7, align 8, !tbaa !21
  %70 = load i8, ptr %69, align 1, !tbaa !48
  %71 = sext i8 %70 to i32
  %72 = icmp eq i32 %71, 38
  br i1 %72, label %73, label %79

73:                                               ; preds = %68
  %74 = load ptr, ptr @amp, align 8, !tbaa !21
  %75 = call i64 @strlen(ptr noundef %74) #11
  %76 = sub i64 %75, 1
  %77 = load i64, ptr %4, align 8, !tbaa !4
  %78 = add i64 %77, %76
  store i64 %78, ptr %4, align 8, !tbaa !4
  br label %79

79:                                               ; preds = %73, %68
  br label %80

80:                                               ; preds = %79, %62
  br label %81

81:                                               ; preds = %80, %51
  br label %82

82:                                               ; preds = %81, %40
  br label %83

83:                                               ; preds = %82, %29
  %84 = load ptr, ptr %7, align 8, !tbaa !21
  %85 = getelementptr inbounds nuw i8, ptr %84, i32 1
  store ptr %85, ptr %7, align 8, !tbaa !21
  br label %86

86:                                               ; preds = %83
  %87 = load i64, ptr %6, align 8, !tbaa !4
  %88 = add i64 %87, 1
  store i64 %88, ptr %6, align 8, !tbaa !4
  br label %20, !llvm.loop !49

89:                                               ; preds = %20
  %90 = load i64, ptr %4, align 8, !tbaa !4
  %91 = icmp eq i64 %90, 0
  br i1 %91, label %92, label %95

92:                                               ; preds = %89
  %93 = load ptr, ptr %3, align 8, !tbaa !21
  %94 = call noalias ptr @strdup(ptr noundef %93) #9
  store ptr %94, ptr %2, align 8
  store i32 1, ptr %11, align 4
  br label %194

95:                                               ; preds = %89
  %96 = load ptr, ptr %3, align 8, !tbaa !21
  store ptr %96, ptr %7, align 8, !tbaa !21
  %97 = load i64, ptr %5, align 8, !tbaa !4
  %98 = load i64, ptr %4, align 8, !tbaa !4
  %99 = add i64 %97, %98
  %100 = add i64 %99, 1
  store i64 %100, ptr %10, align 8, !tbaa !4
  %101 = load i64, ptr %10, align 8, !tbaa !4
  %102 = call noalias ptr @malloc(i64 noundef %101) #10
  store ptr %102, ptr %8, align 8, !tbaa !21
  store ptr %102, ptr %9, align 8, !tbaa !21
  %103 = load ptr, ptr %8, align 8, !tbaa !21
  %104 = icmp ne ptr %103, null
  br i1 %104, label %106, label %105

105:                                              ; preds = %95
  store ptr null, ptr %2, align 8
  store i32 1, ptr %11, align 4
  br label %194

106:                                              ; preds = %95
  store i64 0, ptr %6, align 8, !tbaa !4
  br label %107

107:                                              ; preds = %188, %106
  %108 = load i64, ptr %6, align 8, !tbaa !4
  %109 = load i64, ptr %5, align 8, !tbaa !4
  %110 = icmp ult i64 %108, %109
  br i1 %110, label %111, label %191

111:                                              ; preds = %107
  call void @llvm.lifetime.start.p0(i64 8, ptr %12) #9
  %112 = load ptr, ptr %7, align 8, !tbaa !21
  %113 = load i8, ptr %112, align 1, !tbaa !48
  %114 = sext i8 %113 to i32
  %115 = icmp eq i32 %114, 39
  br i1 %115, label %116, label %123

116:                                              ; preds = %111
  %117 = load ptr, ptr %8, align 8, !tbaa !21
  %118 = load ptr, ptr @apos, align 8, !tbaa !21
  %119 = load i64, ptr %10, align 8, !tbaa !4
  %120 = call ptr @strncpy(ptr noundef %117, ptr noundef %118, i64 noundef %119) #9
  %121 = load ptr, ptr @apos, align 8, !tbaa !21
  %122 = call i64 @strlen(ptr noundef %121) #11
  store i64 %122, ptr %12, align 8, !tbaa !4
  br label %179

123:                                              ; preds = %111
  %124 = load ptr, ptr %7, align 8, !tbaa !21
  %125 = load i8, ptr %124, align 1, !tbaa !48
  %126 = sext i8 %125 to i32
  %127 = icmp eq i32 %126, 60
  br i1 %127, label %128, label %135

128:                                              ; preds = %123
  %129 = load ptr, ptr %8, align 8, !tbaa !21
  %130 = load ptr, ptr @lt, align 8, !tbaa !21
  %131 = load i64, ptr %10, align 8, !tbaa !4
  %132 = call ptr @strncpy(ptr noundef %129, ptr noundef %130, i64 noundef %131) #9
  %133 = load ptr, ptr @lt, align 8, !tbaa !21
  %134 = call i64 @strlen(ptr noundef %133) #11
  store i64 %134, ptr %12, align 8, !tbaa !4
  br label %178

135:                                              ; preds = %123
  %136 = load ptr, ptr %7, align 8, !tbaa !21
  %137 = load i8, ptr %136, align 1, !tbaa !48
  %138 = sext i8 %137 to i32
  %139 = icmp eq i32 %138, 62
  br i1 %139, label %140, label %147

140:                                              ; preds = %135
  %141 = load ptr, ptr %8, align 8, !tbaa !21
  %142 = load ptr, ptr @gt, align 8, !tbaa !21
  %143 = load i64, ptr %10, align 8, !tbaa !4
  %144 = call ptr @strncpy(ptr noundef %141, ptr noundef %142, i64 noundef %143) #9
  %145 = load ptr, ptr @gt, align 8, !tbaa !21
  %146 = call i64 @strlen(ptr noundef %145) #11
  store i64 %146, ptr %12, align 8, !tbaa !4
  br label %177

147:                                              ; preds = %135
  %148 = load ptr, ptr %7, align 8, !tbaa !21
  %149 = load i8, ptr %148, align 1, !tbaa !48
  %150 = sext i8 %149 to i32
  %151 = icmp eq i32 %150, 34
  br i1 %151, label %152, label %159

152:                                              ; preds = %147
  %153 = load ptr, ptr %8, align 8, !tbaa !21
  %154 = load ptr, ptr @quote, align 8, !tbaa !21
  %155 = load i64, ptr %10, align 8, !tbaa !4
  %156 = call ptr @strncpy(ptr noundef %153, ptr noundef %154, i64 noundef %155) #9
  %157 = load ptr, ptr @quote, align 8, !tbaa !21
  %158 = call i64 @strlen(ptr noundef %157) #11
  store i64 %158, ptr %12, align 8, !tbaa !4
  br label %176

159:                                              ; preds = %147
  %160 = load ptr, ptr %7, align 8, !tbaa !21
  %161 = load i8, ptr %160, align 1, !tbaa !48
  %162 = sext i8 %161 to i32
  %163 = icmp eq i32 %162, 38
  br i1 %163, label %164, label %171

164:                                              ; preds = %159
  %165 = load ptr, ptr %8, align 8, !tbaa !21
  %166 = load ptr, ptr @amp, align 8, !tbaa !21
  %167 = load i64, ptr %10, align 8, !tbaa !4
  %168 = call ptr @strncpy(ptr noundef %165, ptr noundef %166, i64 noundef %167) #9
  %169 = load ptr, ptr @amp, align 8, !tbaa !21
  %170 = call i64 @strlen(ptr noundef %169) #11
  store i64 %170, ptr %12, align 8, !tbaa !4
  br label %175

171:                                              ; preds = %159
  %172 = load ptr, ptr %7, align 8, !tbaa !21
  %173 = load i8, ptr %172, align 1, !tbaa !48
  %174 = load ptr, ptr %8, align 8, !tbaa !21
  store i8 %173, ptr %174, align 1, !tbaa !48
  store i64 1, ptr %12, align 8, !tbaa !4
  br label %175

175:                                              ; preds = %171, %164
  br label %176

176:                                              ; preds = %175, %152
  br label %177

177:                                              ; preds = %176, %140
  br label %178

178:                                              ; preds = %177, %128
  br label %179

179:                                              ; preds = %178, %116
  %180 = load i64, ptr %12, align 8, !tbaa !4
  %181 = load ptr, ptr %8, align 8, !tbaa !21
  %182 = getelementptr inbounds nuw i8, ptr %181, i64 %180
  store ptr %182, ptr %8, align 8, !tbaa !21
  %183 = load i64, ptr %12, align 8, !tbaa !4
  %184 = load i64, ptr %10, align 8, !tbaa !4
  %185 = sub i64 %184, %183
  store i64 %185, ptr %10, align 8, !tbaa !4
  %186 = load ptr, ptr %7, align 8, !tbaa !21
  %187 = getelementptr inbounds nuw i8, ptr %186, i32 1
  store ptr %187, ptr %7, align 8, !tbaa !21
  call void @llvm.lifetime.end.p0(i64 8, ptr %12) #9
  br label %188

188:                                              ; preds = %179
  %189 = load i64, ptr %6, align 8, !tbaa !4
  %190 = add i64 %189, 1
  store i64 %190, ptr %6, align 8, !tbaa !4
  br label %107, !llvm.loop !51

191:                                              ; preds = %107
  %192 = load ptr, ptr %8, align 8, !tbaa !21
  store i8 0, ptr %192, align 1, !tbaa !48
  %193 = load ptr, ptr %9, align 8, !tbaa !21
  store ptr %193, ptr %2, align 8
  store i32 1, ptr %11, align 4
  br label %194

194:                                              ; preds = %191, %105, %92, %15
  call void @llvm.lifetime.end.p0(i64 8, ptr %10) #9
  call void @llvm.lifetime.end.p0(i64 8, ptr %9) #9
  call void @llvm.lifetime.end.p0(i64 8, ptr %8) #9
  call void @llvm.lifetime.end.p0(i64 8, ptr %7) #9
  call void @llvm.lifetime.end.p0(i64 8, ptr %6) #9
  call void @llvm.lifetime.end.p0(i64 8, ptr %5) #9
  call void @llvm.lifetime.end.p0(i64 8, ptr %4) #9
  %195 = load ptr, ptr %2, align 8
  ret ptr %195
}