; Function Attrs: nofree nounwind uwtable
define internal fastcc ptr @xml_escape_the_name(ptr noundef readonly captures(address_is_null) %0) unnamed_addr #6 {
  %.not = icmp eq ptr %0, null
  br i1 %.not, label %41, label %2

2:                                                ; preds = %1
  %3 = tail call i64 @strlen(ptr noundef nonnull dereferenceable(1) %0) #16
  %.not75 = icmp eq i64 %3, 0
  br i1 %.not75, label %._crit_edge.thread, label %.lr.ph

.lr.ph:                                           ; preds = %2, %15
  %.05467 = phi ptr [ %16, %15 ], [ %0, %2 ]
  %.05566 = phi i64 [ %17, %15 ], [ 0, %2 ]
  %.05765 = phi i64 [ %.158, %15 ], [ 0, %2 ]
  %4 = load i8, ptr %.05467, align 1, !tbaa !44
  switch i8 %4, label %15 [
    i8 34, label %5
    i8 39, label %7
    i8 60, label %9
    i8 62, label %11
    i8 38, label %13
  ]

5:                                                ; preds = %.lr.ph
  %6 = add i64 %.05765, 5
  br label %15

7:                                                ; preds = %.lr.ph
  %8 = add i64 %.05765, 5
  br label %15

9:                                                ; preds = %.lr.ph
  %10 = add i64 %.05765, 3
  br label %15

11:                                               ; preds = %.lr.ph
  %12 = add i64 %.05765, 3
  br label %15

13:                                               ; preds = %.lr.ph
  %14 = add i64 %.05765, 4
  br label %15

15:                                               ; preds = %.lr.ph, %7, %11, %13, %9, %5
  %.158 = phi i64 [ %6, %5 ], [ %8, %7 ], [ %10, %9 ], [ %12, %11 ], [ %14, %13 ], [ %.05765, %.lr.ph ]
  %16 = getelementptr inbounds nuw i8, ptr %.05467, i64 1
  %17 = add nuw i64 %.05566, 1
  %exitcond.not = icmp eq i64 %17, %3
  br i1 %exitcond.not, label %._crit_edge, label %.lr.ph, !llvm.loop !45

._crit_edge:                                      ; preds = %15
  %18 = icmp eq i64 %.158, 0
  br i1 %18, label %._crit_edge.thread, label %20

._crit_edge.thread:                               ; preds = %2, %._crit_edge
  %19 = tail call noalias ptr @strdup(ptr noundef nonnull %0) #14
  br label %41

20:                                               ; preds = %._crit_edge
  %21 = add i64 %3, 1
  %22 = add i64 %21, %.158
  %23 = tail call noalias ptr @malloc(i64 noundef %22) #15
  %.not64 = icmp eq ptr %23, null
  br i1 %.not64, label %41, label %.lr.ph72

.lr.ph72:                                         ; preds = %20, %36
  %.05171 = phi i64 [ %38, %36 ], [ %22, %20 ]
  %.05370 = phi ptr [ %37, %36 ], [ %23, %20 ]
  %.169 = phi ptr [ %39, %36 ], [ %0, %20 ]
  %.15668 = phi i64 [ %40, %36 ], [ 0, %20 ]
  %24 = load i8, ptr %.169, align 1, !tbaa !44
  switch i8 %24, label %35 [
    i8 39, label %25
    i8 60, label %27
    i8 62, label %29
    i8 34, label %31
    i8 38, label %33
  ]

25:                                               ; preds = %.lr.ph72
  %26 = tail call ptr @strncpy(ptr noundef nonnull %.05370, ptr noundef nonnull dereferenceable(7) @.str.98, i64 noundef %.05171) #14
  br label %36

27:                                               ; preds = %.lr.ph72
  %28 = tail call ptr @strncpy(ptr noundef nonnull %.05370, ptr noundef nonnull dereferenceable(5) @.str.99, i64 noundef %.05171) #14
  br label %36

29:                                               ; preds = %.lr.ph72
  %30 = tail call ptr @strncpy(ptr noundef nonnull %.05370, ptr noundef nonnull dereferenceable(5) @.str.100, i64 noundef %.05171) #14
  br label %36

31:                                               ; preds = %.lr.ph72
  %32 = tail call ptr @strncpy(ptr noundef nonnull %.05370, ptr noundef nonnull dereferenceable(7) @.str.97, i64 noundef %.05171) #14
  br label %36

33:                                               ; preds = %.lr.ph72
  %34 = tail call ptr @strncpy(ptr noundef nonnull %.05370, ptr noundef nonnull dereferenceable(6) @.str.101, i64 noundef %.05171) #14
  br label %36

35:                                               ; preds = %.lr.ph72
  store i8 %24, ptr %.05370, align 1, !tbaa !44
  br label %36

36:                                               ; preds = %27, %31, %35, %33, %29, %25
  %.0 = phi i64 [ 6, %25 ], [ 4, %27 ], [ 4, %29 ], [ 6, %31 ], [ 5, %33 ], [ 1, %35 ]
  %37 = getelementptr inbounds nuw i8, ptr %.05370, i64 %.0
  %38 = sub i64 %.05171, %.0
  %39 = getelementptr inbounds nuw i8, ptr %.169, i64 1
  %40 = add nuw i64 %.15668, 1
  %exitcond77.not = icmp eq i64 %40, %3
  br i1 %exitcond77.not, label %._crit_edge73, label %.lr.ph72, !llvm.loop !47

._crit_edge73:                                    ; preds = %36
  store i8 0, ptr %37, align 1, !tbaa !44
  br label %41

41:                                               ; preds = %20, %1, %._crit_edge73, %._crit_edge.thread
  %.052 = phi ptr [ %19, %._crit_edge.thread ], [ %23, %._crit_edge73 ], [ null, %1 ], [ null, %20 ]
  ret ptr %.052
}